; Function Attrs: mustprogress uwtable
define noundef nonnull align 8 dereferenceable(128) ptr @_ZN8QuantLib22MakeFdCIRVanillaEngine17withFdmSchemeDescERKNS_13FdmSchemeDescE(ptr noundef nonnull returned align 8 dereferenceable(128) %this, ptr noundef nonnull align 8 dereferenceable(24) %schemeDesc) local_unnamed_addr #8 align 2 personality ptr @__gxx_personality_v0 {
entry:
  %ref.tmp = alloca %"class.boost::shared_ptr.81", align 8
  call void @llvm.lifetime.start.p0(i64 16, ptr nonnull %ref.tmp) #25
  call void @_ZN5boost11make_sharedIN8QuantLib13FdmSchemeDescEJRKS2_EEENS_6detail15sp_if_not_arrayIT_E4typeEDpOT0_(ptr dead_on_unwind nonnull writable sret(%"class.boost::shared_ptr.81") align 8 %ref.tmp, ptr noundef nonnull align 8 dereferenceable(24) %schemeDesc)
  %schemeDesc_ = getelementptr inbounds nuw i8, ptr %this, i64 96
  %0 = load ptr, ptr %ref.tmp, align 8, !tbaa !172
  %pn3.i.i = getelementptr inbounds nuw i8, ptr %ref.tmp, i64 8
  %1 = load ptr, ptr %pn3.i.i, align 8, !tbaa !37
  call void @llvm.memset.p0.i64(ptr noundef nonnull align 8 dereferenceable(16) %ref.tmp, i8 0, i64 16, i1 false)
  store ptr %0, ptr %schemeDesc_, align 8, !tbaa !3
  %pn3.i2.i = getelementptr inbounds nuw i8, ptr %this, i64 104
  %2 = load ptr, ptr %pn3.i2.i, align 8, !tbaa !37
  store ptr %1, ptr %pn3.i2.i, align 8, !tbaa !37
  %cmp.not.i.i.i = icmp eq ptr %2, null
  br i1 %cmp.not.i.i.i, label %_ZN5boost10shared_ptrIN8QuantLib13FdmSchemeDescEEaSEOS3_.exit, label %if.then.i.i.i

if.then.i.i.i:                                    ; preds = %entry
  %use_count_.i.i.i.i = getelementptr inbounds nuw i8, ptr %2, i64 8
  %3 = atomicrmw sub ptr %use_count_.i.i.i.i, i32 1 acq_rel, align 4
  %cmp.i.i.i.i = icmp eq i32 %3, 1
  br i1 %cmp.i.i.i.i, label %if.then.i.i.i.i, label %_ZN5boost10shared_ptrIN8QuantLib13FdmSchemeDescEEaSEOS3_.exit

if.then.i.i.i.i:                                  ; preds = %if.then.i.i.i
  %vtable.i.i.i.i = load ptr, ptr %2, align 8, !tbaa !35
  %vfn.i.i.i.i = getelementptr inbounds i8, ptr %vtable.i.i.i.i, i64 16
  %4 = load ptr, ptr %vfn.i.i.i.i, align 8
  invoke void %4(ptr noundef nonnull align 8 dereferenceable(16) %2)
          to label %.noexc.i.i.i unwind label %terminate.lpad.i.i.i

.noexc.i.i.i:                                     ; preds = %if.then.i.i.i.i
  %weak_count_.i.i.i.i.i = getelementptr inbounds nuw i8, ptr %2, i64 12
  %5 = atomicrmw sub ptr %weak_count_.i.i.i.i.i, i32 1 acq_rel, align 4
  %cmp.i.i.i.i.i = icmp eq i32 %5, 1
  br i1 %cmp.i.i.i.i.i, label %if.then.i.i.i.i.i, label %_ZN5boost10shared_ptrIN8QuantLib13FdmSchemeDescEEaSEOS3_.exit

if.then.i.i.i.i.i:                                ; preds = %.noexc.i.i.i
  %vtable.i.i.i.i.i = load ptr, ptr %2, align 8, !tbaa !35
  %vfn.i.i.i.i.i = getelementptr inbounds i8, ptr %vtable.i.i.i.i.i, i64 24
  %6 = load ptr, ptr %vfn.i.i.i.i.i, align 8
  invoke void %6(ptr noundef nonnull align 8 dereferenceable(16) %2)
          to label %_ZN5boost10shared_ptrIN8QuantLib13FdmSchemeDescEEaSEOS3_.exit unwind label %terminate.lpad.i.i.i

terminate.lpad.i.i.i:                             ; preds = %if.then.i.i.i.i.i, %if.then.i.i.i.i
  %7 = landingpad { ptr, i32 }
          catch ptr null
  %8 = extractvalue { ptr, i32 } %7, 0
  call void @__clang_call_terminate(ptr %8) #26
  unreachable

_ZN5boost10shared_ptrIN8QuantLib13FdmSchemeDescEEaSEOS3_.exit: ; preds = %entry, %if.then.i.i.i, %.noexc.i.i.i, %if.then.i.i.i.i.i
  %9 = load ptr, ptr %pn3.i.i, align 8, !tbaa !37
  %cmp.not.i.i = icmp eq ptr %9, null
  br i1 %cmp.not.i.i, label %_ZN5boost10shared_ptrIN8QuantLib13FdmSchemeDescEED2Ev.exit, label %if.then.i.i

if.then.i.i:                                      ; preds = %_ZN5boost10shared_ptrIN8QuantLib13FdmSchemeDescEEaSEOS3_.exit
  %use_count_.i.i.i = getelementptr inbounds nuw i8, ptr %9, i64 8
  %10 = atomicrmw sub ptr %use_count_.i.i.i, i32 1 acq_rel, align 4
  %cmp.i.i.i = icmp eq i32 %10, 1
  br i1 %cmp.i.i.i, label %if.then.i.i.i1, label %_ZN5boost10shared_ptrIN8QuantLib13FdmSchemeDescEED2Ev.exit

if.then.i.i.i1:                                   ; preds = %if.then.i.i
  %vtable.i.i.i = load ptr, ptr %9, align 8, !tbaa !35
  %vfn.i.i.i = getelementptr inbounds i8, ptr %vtable.i.i.i, i64 16
  %11 = load ptr, ptr %vfn.i.i.i, align 8
  invoke void %11(ptr noundef nonnull align 8 dereferenceable(16) %9)
          to label %.noexc.i.i unwind label %terminate.lpad.i.i

.noexc.i.i:                                       ; preds = %if.then.i.i.i1
  %weak_count_.i.i.i.i = getelementptr inbounds nuw i8, ptr %9, i64 12
  %12 = atomicrmw sub ptr %weak_count_.i.i.i.i, i32 1 acq_rel, align 4
  %cmp.i.i.i.i2 = icmp eq i32 %12, 1
  br i1 %cmp.i.i.i.i2, label %if.then.i.i.i.i3, label %_ZN5boost10shared_ptrIN8QuantLib13FdmSchemeDescEED2Ev.exit

if.then.i.i.i.i3:                                 ; preds = %.noexc.i.i
  %vtable.i.i.i.i4 = load ptr, ptr %9, align 8, !tbaa !35
  %vfn.i.i.i.i5 = getelementptr inbounds i8, ptr %vtable.i.i.i.i4, i64 24
  %13 = load ptr, ptr %vfn.i.i.i.i5, align 8
  invoke void %13(ptr noundef nonnull align 8 dereferenceable(16) %9)
          to label %_ZN5boost10shared_ptrIN8QuantLib13FdmSchemeDescEED2Ev.exit unwind label %terminate.lpad.i.i

terminate.lpad.i.i:                               ; preds = %if.then.i.i.i.i3, %if.then.i.i.i1
  %14 = landingpad { ptr, i32 }
          catch ptr null
  %15 = extractvalue { ptr, i32 } %14, 0
  call void @__clang_call_terminate(ptr %15) #26
  unreachable

_ZN5boost10shared_ptrIN8QuantLib13FdmSchemeDescEED2Ev.exit: ; preds = %_ZN5boost10shared_ptrIN8QuantLib13FdmSchemeDescEEaSEOS3_.exit, %if.then.i.i, %.noexc.i.i, %if.then.i.i.i.i3
  call void @llvm.lifetime.end.p0(i64 16, ptr nonnull %ref.tmp) #25
  ret ptr %this
}